target datalayout = "e-m:e-p270:32:32-p271:32:32-p272:64:64-i64:64-i128:128-f80:128-n8:16:32:64-S128"
target triple = "x86_64-pc-linux-gnu"

%struct.AVFilterContext = type { ptr, ptr, ptr, ptr, ptr, i32, ptr, ptr, i32, ptr, ptr, i32, i32, ptr, ptr, ptr, ptr, i32, ptr, i32, i32 }
%struct.ColorChannelMixerContext = type { ptr, double, double, double, double, double, double, double, double, double, double, double, double, double, double, double, double, double, i32, [4 x [4 x ptr]], ptr, [4 x i8], [2 x ptr] }
%struct.ThreadData = type { ptr, ptr }
%struct.AVFilterLink = type { ptr, ptr, ptr, ptr, i32, i32, i32, i32, %struct.AVRational, i32, i32, i32, %struct.AVChannelLayout, %struct.AVRational, ptr, i32, %struct.AVFilterFormatsConfig, %struct.AVFilterFormatsConfig }
%struct.AVChannelLayout = type { i32, i32, %union.anon.1, ptr }
%union.anon.1 = type { i64 }
%struct.AVRational = type { i32, i32 }
%struct.AVFilterFormatsConfig = type { ptr, ptr, ptr, ptr, ptr }

; Function Attrs: nounwind uwtable
define internal i32 @filter_frame(ptr noundef %0, ptr noundef %1) #1 {
  %3 = alloca i32, align 4
  %4 = alloca ptr, align 8
  %5 = alloca ptr, align 8
  %6 = alloca ptr, align 8
  %7 = alloca ptr, align 8
  %8 = alloca ptr, align 8
  %9 = alloca i32, align 4
  %10 = alloca %struct.ThreadData, align 8
  %11 = alloca ptr, align 8
  %12 = alloca i32, align 4
  store ptr %0, ptr %4, align 8, !tbaa !27
  store ptr %1, ptr %5, align 8, !tbaa !29
  call void @llvm.lifetime.start.p0(i64 8, ptr %6) #10
  %13 = load ptr, ptr %4, align 8, !tbaa !27
  %14 = getelementptr inbounds nuw %struct.AVFilterLink, ptr %13, i32 0, i32 2
  %15 = load ptr, ptr %14, align 8, !tbaa !31
  store ptr %15, ptr %6, align 8, !tbaa !4
  call void @llvm.lifetime.start.p0(i64 8, ptr %7) #10
  %16 = load ptr, ptr %6, align 8, !tbaa !4
  %17 = getelementptr inbounds nuw %struct.AVFilterContext, ptr %16, i32 0, i32 9
  %18 = load ptr, ptr %17, align 8, !tbaa !9
  store ptr %18, ptr %7, align 8, !tbaa !22
  call void @llvm.lifetime.start.p0(i64 8, ptr %8) #10
  %19 = load ptr, ptr %6, align 8, !tbaa !4
  %20 = getelementptr inbounds nuw %struct.AVFilterContext, ptr %19, i32 0, i32 7
  %21 = load ptr, ptr %20, align 8, !tbaa !26
  %22 = getelementptr inbounds ptr, ptr %21, i64 0
  %23 = load ptr, ptr %22, align 8, !tbaa !27
  store ptr %23, ptr %8, align 8, !tbaa !27
  call void @llvm.lifetime.start.p0(i64 4, ptr %9) #10
  %24 = load ptr, ptr %7, align 8, !tbaa !22
  %25 = getelementptr inbounds nuw %struct.ColorChannelMixerContext, ptr %24, i32 0, i32 18
  %26 = load i32, ptr %25, align 8, !tbaa !39
  %27 = icmp sgt i32 %26, 0
  %28 = zext i1 %27 to i32
  store i32 %28, ptr %9, align 4, !tbaa !25
  call void @llvm.lifetime.start.p0(i64 16, ptr %10) #10
  call void @llvm.lifetime.start.p0(i64 8, ptr %11) #10
  %29 = load ptr, ptr %5, align 8, !tbaa !29
  %30 = call i32 @av_frame_is_writable(ptr noundef %29)
  %31 = icmp ne i32 %30, 0
  br i1 %31, label %32, label %34

32:                                               ; preds = %2
  %33 = load ptr, ptr %5, align 8, !tbaa !29
  store ptr %33, ptr %11, align 8, !tbaa !29
  br label %50

34:                                               ; preds = %2
  %35 = load ptr, ptr %8, align 8, !tbaa !27
  %36 = load ptr, ptr %8, align 8, !tbaa !27
  %37 = getelementptr inbounds nuw %struct.AVFilterLink, ptr %36, i32 0, i32 6
  %38 = load i32, ptr %37, align 8, !tbaa !43
  %39 = load ptr, ptr %8, align 8, !tbaa !27
  %40 = getelementptr inbounds nuw %struct.AVFilterLink, ptr %39, i32 0, i32 7
  %41 = load i32, ptr %40, align 4, !tbaa !44
  %42 = call ptr @ff_get_video_buffer(ptr noundef %35, i32 noundef %38, i32 noundef %41)
  store ptr %42, ptr %11, align 8, !tbaa !29
  %43 = load ptr, ptr %11, align 8, !tbaa !29
  %44 = icmp ne ptr %43, null
  br i1 %44, label %46, label %45

45:                                               ; preds = %34
  call void @av_frame_free(ptr noundef %5)
  store i32 -12, ptr %3, align 4
  store i32 1, ptr %12, align 4
  br label %86

46:                                               ; preds = %34
  %47 = load ptr, ptr %11, align 8, !tbaa !29
  %48 = load ptr, ptr %5, align 8, !tbaa !29
  %49 = call i32 @av_frame_copy_props(ptr noundef %47, ptr noundef %48)
  br label %50

50:                                               ; preds = %46, %32
  %51 = load ptr, ptr %5, align 8, !tbaa !29
  %52 = getelementptr inbounds nuw %struct.ThreadData, ptr %10, i32 0, i32 0
  store ptr %51, ptr %52, align 8, !tbaa !45
  %53 = load ptr, ptr %11, align 8, !tbaa !29
  %54 = getelementptr inbounds nuw %struct.ThreadData, ptr %10, i32 0, i32 1
  store ptr %53, ptr %54, align 8, !tbaa !47
  %55 = load ptr, ptr %6, align 8, !tbaa !4
  %56 = load ptr, ptr %7, align 8, !tbaa !22
  %57 = getelementptr inbounds nuw %struct.ColorChannelMixerContext, ptr %56, i32 0, i32 22
  %58 = load i32, ptr %9, align 4, !tbaa !25
  %59 = sext i32 %58 to i64
  %60 = getelementptr inbounds [2 x ptr], ptr %57, i64 0, i64 %59
  %61 = load ptr, ptr %60, align 8, !tbaa !48
  %62 = load ptr, ptr %8, align 8, !tbaa !27
  %63 = getelementptr inbounds nuw %struct.AVFilterLink, ptr %62, i32 0, i32 7
  %64 = load i32, ptr %63, align 4, !tbaa !44
  %65 = load ptr, ptr %6, align 8, !tbaa !4
  %66 = call i32 @ff_filter_get_nb_threads(ptr noundef %65) #11
  %67 = icmp sgt i32 %64, %66
  br i1 %67, label %68, label %71

68:                                               ; preds = %50
  %69 = load ptr, ptr %6, align 8, !tbaa !4
  %70 = call i32 @ff_filter_get_nb_threads(ptr noundef %69) #11
  br label %75

71:                                               ; preds = %50
  %72 = load ptr, ptr %8, align 8, !tbaa !27
  %73 = getelementptr inbounds nuw %struct.AVFilterLink, ptr %72, i32 0, i32 7
  %74 = load i32, ptr %73, align 4, !tbaa !44
  br label %75

75:                                               ; preds = %71, %68
  %76 = phi i32 [ %70, %68 ], [ %74, %71 ]
  %77 = call i32 @ff_filter_execute(ptr noundef %55, ptr noundef %61, ptr noundef %10, ptr noundef null, i32 noundef %76)
  %78 = load ptr, ptr %5, align 8, !tbaa !29
  %79 = load ptr, ptr %11, align 8, !tbaa !29
  %80 = icmp ne ptr %78, %79
  br i1 %80, label %81, label %82

81:                                               ; preds = %75
  call void @av_frame_free(ptr noundef %5)
  br label %82

82:                                               ; preds = %81, %75
  %83 = load ptr, ptr %8, align 8, !tbaa !27
  %84 = load ptr, ptr %11, align 8, !tbaa !29
  %85 = call i32 @ff_filter_frame(ptr noundef %83, ptr noundef %84)
  store i32 %85, ptr %3, align 4
  store i32 1, ptr %12, align 4
  br label %86

86:                                               ; preds = %82, %45
  call void @llvm.lifetime.end.p0(i64 8, ptr %11) #10
  call void @llvm.lifetime.end.p0(i64 16, ptr %10) #10
  call void @llvm.lifetime.end.p0(i64 4, ptr %9) #10
  call void @llvm.lifetime.end.p0(i64 8, ptr %8) #10
  call void @llvm.lifetime.end.p0(i64 8, ptr %7) #10
  call void @llvm.lifetime.end.p0(i64 8, ptr %6) #10
  %87 = load i32, ptr %3, align 4
  ret i32 %87
}