; Function Attrs: nounwind uwtable
define internal i32 @filter_frame(ptr noundef readonly captures(none) %0, ptr noundef %1) #1 {
  %3 = alloca ptr, align 8
  %4 = alloca %struct.ThreadData, align 8
  store ptr %1, ptr %3, align 8, !tbaa !23
  %5 = getelementptr inbounds nuw i8, ptr %0, i64 16
  %6 = load ptr, ptr %5, align 8, !tbaa !25
  %7 = getelementptr inbounds nuw i8, ptr %6, i64 72
  %8 = load ptr, ptr %7, align 8, !tbaa !4
  %9 = getelementptr inbounds nuw i8, ptr %6, i64 56
  %10 = load ptr, ptr %9, align 8, !tbaa !20
  %11 = load ptr, ptr %10, align 8, !tbaa !21
  %12 = getelementptr inbounds nuw i8, ptr %8, i64 144
  %13 = load i32, ptr %12, align 8, !tbaa !34
  %14 = icmp sgt i32 %13, 0
  call void @llvm.lifetime.start.p0(i64 16, ptr nonnull %4) #9
  %15 = tail call i32 @av_frame_is_writable(ptr noundef %1) #9
  %.not = icmp eq i32 %15, 0
  br i1 %.not, label %16, label %25

16:                                               ; preds = %2
  %17 = getelementptr inbounds nuw i8, ptr %11, i64 40
  %18 = load i32, ptr %17, align 8, !tbaa !38
  %19 = getelementptr inbounds nuw i8, ptr %11, i64 44
  %20 = load i32, ptr %19, align 4, !tbaa !39
  %21 = tail call ptr @ff_get_video_buffer(ptr noundef %11, i32 noundef %18, i32 noundef %20) #9
  %.not24 = icmp eq ptr %21, null
  br i1 %.not24, label %22, label %23

22:                                               ; preds = %16
  call void @av_frame_free(ptr noundef nonnull %3) #9
  br label %39

23:                                               ; preds = %16
  %24 = tail call i32 @av_frame_copy_props(ptr noundef nonnull %21, ptr noundef %1) #9
  br label %25

25:                                               ; preds = %2, %23
  %.0 = phi ptr [ %21, %23 ], [ %1, %2 ]
  store ptr %1, ptr %4, align 8, !tbaa !40
  %26 = getelementptr inbounds nuw i8, ptr %4, i64 8
  store ptr %.0, ptr %26, align 8, !tbaa !42
  %27 = getelementptr inbounds nuw i8, ptr %8, i64 296
  %28 = zext i1 %14 to i64
  %29 = getelementptr inbounds nuw [2 x ptr], ptr %27, i64 0, i64 %28
  %30 = load ptr, ptr %29, align 8, !tbaa !43
  %31 = getelementptr inbounds nuw i8, ptr %11, i64 44
  %32 = load i32, ptr %31, align 4, !tbaa !39
  %33 = tail call i32 @ff_filter_get_nb_threads(ptr noundef nonnull %6) #10
  %. = tail call i32 @llvm.smin.i32(i32 %32, i32 %33)
  %34 = call i32 @ff_filter_execute(ptr noundef nonnull %6, ptr noundef %30, ptr noundef nonnull %4, ptr noundef null, i32 noundef %.) #9
  %35 = load ptr, ptr %3, align 8, !tbaa !23
  %.not25 = icmp eq ptr %35, %.0
  br i1 %.not25, label %37, label %36

36:                                               ; preds = %25
  call void @av_frame_free(ptr noundef nonnull %3) #9
  br label %37

37:                                               ; preds = %36, %25
  %38 = call i32 @ff_filter_frame(ptr noundef nonnull %11, ptr noundef %.0) #9
  br label %39

39:                                               ; preds = %37, %22
  %.020 = phi i32 [ %38, %37 ], [ -12, %22 ]
  call void @llvm.lifetime.end.p0(i64 16, ptr nonnull %4) #9
  ret i32 %.020
}